(lp1
((lp2
S'fraud'
p3
aS'videos'
p4
aS'by'
p5
aS'rebels'
p6
aS'in'
p7
aS'httpstcokzwkbffylo'
p8
aS'\xe2\x80\xa6'
p9
aS'via'
p10
a(lp11
S'#qatar'
p12
aS'#saudibacked'
p13
aS'#fsa'
p14
aS'#syria'
p15
atp16
a((lp17
S'only'
p18
aS'25'
p19
aS'of'
p20
aS'americans'
p21
aS'believe'
p22
aS'military'
p23
aS'response'
p24
aS'required'
p25
aS'after'
p26
aS'last'
p27
aS'week\xe2\x80\x99s'
p28
aS'alleged'
p29
aS'chemical'
p30
aS'attack'
p31
aS'in'
p32
aS''
aS'poll'
p33
a(lp34
S'#syria'
p35
atp36
a((lp37
S'please'
p38
aS'tweet'
p39
aS'link'
p40
aS'to'
p41
aS'film'
p42
aS'not'
p43
aS'anymore'
p44
aS'a'
aS'story'
p45
aS'of'
p46
aS'revolution'
p47
aS'each'
p48
aS'day'
p49
aS'help'
p50
aS'it'
p51
aS'go'
p52
aS'viral'
p53
aS'on'
p54
aS'httptco\xe2\x80\xa6'
p55
a(lp56
S'#syria'
p57
atp58
a((lp59
S'you'
p60
aS'knew'
p61
aS'it'
p62
aS'was'
p63
aS'coming'
p64
aS'securing'
p65
aS'weapons'
p66
aS'may'
p67
aS'require'
p68
aS'us'
p69
aS'troops'
p70
aS''
aS'httptcoutci0lvbce'
p71
aS'via'
p72
a(lp73
S'#syrias'
p74
atp75
a((lp76
S'usas'
p77
aS'rebels'
p78
aS'to'
p79
aS'false'
p80
aS'flag'
p81
aS'israel'
p82
aS'the'
p83
aS'real'
p84
aS'reason'
p85
aS'why'
p86
aS'they'
p87
aS'want'
p88
aS'war'
p89
aS'on'
p90
aS'syria'
p91
aS'httptcobo8fufkrfb'
p92
a(lp93
S'#syria'
p94
atp95
a((lp96
S'no'
p97
aS'more'
p98
aS'life'
p99
aS'there'
p100
aS''
aS'streets'
p101
aS'of'
p102
aS'awash'
p103
aS'with'
p104
aS'the'
p105
aS'blood'
p106
aS'of'
p107
aS'the'
p108
aS'innocents'
p109
aS'httptcoiqszpmfwuw'
p110
a(lp111
S'#syria'
p112
atp113
a((lp114
S'moon'
p115
aS'of'
p116
aS'alabama'
p117
aS'a'
aS'short'
p118
aS'history'
p119
aS'of'
p120
aS'the'
p121
aS'war'
p122
aS'on'
p123
aS''
aS'20062014'
p124
aS'httptcoj4eb9tlip2'
p125
a(lp126
S'#syria'
p127
atp128
a((lp129
S'the'
p130
aS'bravest'
p131
aS'cameraman'
p132
aS'in'
p133
aS'2013'
p134
aS''
aS'camp'
p135
aS'ashra'
p136
aS'httptcoykhu9gvikt'
p137
a(lp138
S'#bah'
p139
aS'#\xd8\xa7\xd9\x84\xd8\xac\xd9\x8a\xd8\xb4\xd8\xa7\xd9\x84\xd8\xad\xd8\xb1'
p140
aS'#\xd8\xa7\xd9\x84\xd8\xa3\xd9\x85\xd8\xa7\xd8\xb1\xd8\xa7\xd8\xaa'
p141
aS'#syria'
p142
aS'#\xd8\xb9\xd9\x85\xd8\xa7\xd9\x86'
p143
aS'#oman'
p144
aS'#saudiarabia'
p145
aS'#\xd8\xb3\xd9\x88\xd8\xb1\xd9\x8a\xd8\xa7'
p146
aS'#\xd8\xa7\xd9\x84\xd8\xac\xd8\xb2\xd9\x8a\xd8\xb1\xd8\xa9'
p147
atp148
a((lp149
S''
aS'httptcobuzomgdomg'
p150
a(lp151
S'#syria'
p152
aS'#\xd8\xb3\xd9\x88\xd8\xb1\xd9\x8a\xd8\xa7'
p153
atp154
a((lp155
S'5'
aS'enormous'
p156
aS'obstacles'
p157
aS'to'
p158
aS'carry'
p159
aS'out'
p160
aS'any'
p161
aS'agreement'
p162
aS''
aS'business'
p163
aS'insider'
p164
aS'httptco5kxufzn7wj'
p165
a(lp166
S'#syria'
p167
aS'#chemical'
p168
aS'#weapons'
p169
aS'#cw'
p170
aS'#wmd'
p171
aS'#mideast'
p172
aS'#war'
p173
atp174
a((lp175
S'us'
p176
aS'russia'
p177
aS'reach'
p178
aS'agreement'
p179
aS'on'
p180
aS'weaponsjohn'
p181
aS'kerry'
p182
aS'amp'
p183
aS'sergei'
p184
aS'lavrov'
p185
aS'are'
p186
aS'now'
p187
aS'holding'
p188
aS'a'
aS'news'
p189
aS'conference'
p190
aS'httptcokr1tq9s\xe2\x80\xa6'
p191
a(lp192
S'#syria'
p193
atp194
a((lp195
S''
aS'httptcoxrcmluy3p7'
p196
a(lp197
S'#\xd8\xb3\xd9\x88\xd8\xb1\xd9\x8a\xd8\xa7'
p198
aS'#syria'
p199
atp200
a((lp201
S'us'
p202
aS'ready'
p203
aS'for'
p204
aS'military'
p205
aS'strike'
p206
aS'if'
p207
aS'talks'
p208
aS'fail'
p209
aS'obam'
p210
aS'httptcosgvcuqiiec'
p211
a(lp212
S'#syria'
p213
aS'#tcot'
p214
aS'#middleeast'
p215
aS'#news'
p216
aS'#euronews'
p217
aS'#health'
p218
aS'#london'
p219
aS'#politics'
p220
atp221
a((lp222
S'people'
p223
aS'are'
p224
aS'frustrated'
p225
aS'w'
aS'politicians'
p226
aS'in'
p227
aS'dc'
p228
aS'who'
p229
aS'arent'
p230
aS'listening'
p231
aS'to'
p232
aS'the'
p233
aS'american'
p234
aS'people'
p235
aS'httptcorbjesmrd1x'
p236
a(lp237
S'#syria'
p238
aS'#defun\xe2\x80\xa6'
p239
atp240
a((lp241
S'can'
p242
aS'radio'
p243
aS'turn'
p244
aS'the'
p245
aS'tide'
p246
aS'in'
p247
aS'meet'
p248
aS'the'
p249
aS'intrepid'
p250
aS'reporters'
p251
aS'who'
p252
aS'betting'
p253
aS'their'
p254
aS'lives'
p255
aS'on'
p256
aS'it'
p257
aS'httptcoy9xtmrdafh'
p258
a(lp259
S'#syria'
p260
atp261
a((lp262
S'what'
p263
aS'the'
p264
aS'govt'
p265
aS'has'
p266
aS'done'
p267
aS'to'
p268
aS'its'
p269
aS'people'
p270
aS'in'
p271
aS'makes'
p272
aS'me'
p273
aS'sick'
p274
aS'and'
p275
aS'breaks'
p276
aS'my'
p277
aS'heart'
p278
aS'as'
p279
aS'much'
p280
aS'as'
p281
aS'the'
p282
aS'intl'
p283
aS'communitys'
p284
aS'lack'
p285
aS'of'
p286
aS'helping'
p287
a(lp288
S'#syria'
p289
atp290
a((lp291
S''
aS'httptcozzk2wdppv4'
p292
a(lp293
S'#syria'
p294
aS'#\xd8\xb3\xd9\x88\xd8\xb1\xd9\x8a\xd8\xa7'
p295
atp296
a((lp297
S'where'
p298
aS'is'
p299
aS'maher'
p300
aS'a'
aS'questin'
p301
aS'raised'
p302
aS'by'
p303
aS'httptcosglcnxk5gl'
p304
a(lp305
S'#assad'
p306
aS'#syria'
p307
atp308
a((lp309
S'syria'
p310
aS'given'
p311
aS'week'
p312
aS'to'
p313
aS'declare'
p314
aS'chemical'
p315
aS'weapons'
p316
aS''
aS'httptcozfqneyqra8'
p317
aS'httptcodmj7xgezup'
p318
a(lp319
S'#syria'
p320
atp321
a((lp322
S'video'
p323
aS'rebels'
p324
aS'reject'
p325
aS'usrussia'
p326
aS'chemical'
p327
aS'arms'
p328
aS'deal'
p329
aS'httptcouzwf7h98yz'
p330
a(lp331
S'#syria'
p332
aS'#news'
p333
atp334
a((lp335
S'httpstcoozfuhckguc'
p336
aS'how'
p337
aS'allah'
p338
aS'is'
p339
aS'exposing'
p340
aS'govt'
p341
aS'of'
p342
aS'as'
p343
aS'enemy'
p344
aS'of'
p345
aS'during'
p346
aS'amp'
p347
aS'unrest'
p348
a(lp349
S'#saudiarabia'
p350
aS'#jordan'
p351
aS'#turkey'
p352
aS'#qatar'
p353
aS'#islam'
p354
aS'#syria'
p355
aS'#egypt'
p356
atp357
a((lp358
S'largely'
p359
aS'unseen'
p360
aS'president\xe2\x80\x99s'
p361
aS'younger'
p362
aS'brother'
p363
aS'maher'
p364
aS'assad'
p365
aS'key'
p366
aS'to'
p367
aS'regime\xe2\x80\x99s'
p368
aS'survival'
p369
aS'httptcogh22swgvcw'
p370
a(lp371
S'#syria'
p372
aS'#\xd8\xb3\xd9\x88\xd8\xb1\xd9\x8a\xd8\xa7'
p373
atp374
a((lp375
S'so'
p376
aS'barry'
p377
aS'pivoted'
p378
aS'on'
p379
aS'his'
p380
aS'in'
p381
aS'prompting'
p382
aS'to'
p383
aS'spike'
p384
aS'the'
p385
aS'diplomatic'
p386
aS'football'
p387
aS'amp'
p388
aS'point'
p389
aS'to'
p390
aS'the'
p391
aS'scoreboard'
p392
a(lp393
S'#redline'
p394
aS'#syria'
p395
aS'#putin'
p396
aS'#tcot'
p397
aS'#uniteblue'
p398
atp399
a((lp400
S'updated'
p401
aS'while'
p402
aS'the'
p403
aS'diplomats'
p404
aS'talked'
p405
aS'captured'
p406
aS'4'
aS'army'
p407
aS'bases'
p408
aS'1'
aS'city'
p409
aS'and'
p410
aS'2'
aS'villages'
p411
aS'in'
p412
aS'deraa'
p413
aS'province'
p414
aS'http\xe2\x80\xa6'
p415
a(lp416
S'#syria'
p417
aS'#fsa'
p418
atp419
a((lp420
S'usa'
p421
aS'rebels'
p422
aS'to'
p423
aS'false'
p424
aS'flag'
p425
aS'israel'
p426
aS'the'
p427
aS'real'
p428
aS'reason'
p429
aS'why'
p430
aS'they'
p431
aS'want'
p432
aS'war'
p433
aS'on'
p434
aS'syria'
p435
aS'httptcobo8fufkrfb'
p436
a(lp437
S'#syria'
p438
atp439
a((lp440
S'ramadi'
p441
aS'protesters'
p442
aS'condemn'
p443
aS'ashraf'
p444
aS'massacre'
p445
aS'httptcoroa0pjckb1'
p446
a(lp447
S'#tcot'
p448
aS'#egypt'
p449
aS'#euronews'
p450
aS'#politics'
p451
aS'#newsfeed'
p452
aS'#fox'
p453
aS'#syria'
p454
aS'#london'
p455
aS'#sms'
p456
aS'#health'
p457
atp458
a((lp459
S'usa'
p460
aS'rebels'
p461
aS'to'
p462
aS'false'
p463
aS'flag'
p464
aS'israel'
p465
aS'the'
p466
aS'real'
p467
aS'reason'
p468
aS'why'
p469
aS'they'
p470
aS'want'
p471
aS'war'
p472
aS'on'
p473
aS'syria'
p474
aS'httptcobo8fufkrfb'
p475
a(lp476
S'#syria'
p477
atp478
a((lp479
S'chapter'
p480
aS'vii'
p481
aS'intervention'
p482
aS'was'
p483
aS'used'
p484
aS'against'
p485
aS'wouldnt'
p486
aS'agree'
p487
aS'to'
p488
aS'this'
p489
aS'if'
p490
aS'they'
p491
aS'think'
p492
aS'is'
p493
aS'under'
p494
aS'threat'
p495
aS'by'
p496
aS'it'
p497
a(lp498
S'#iraq'
p499
aS'#russia'
p500
aS'#syria'
p501
atp502
a((lp503
S'president'
p504
aS'truman'
p505
aS'speech'
p506
aS'for'
p507
aS'nuking'
p508
aS'japan'
p509
aS'while'
p510
aS'the'
p511
aS'us'
p512
aS'slams'
p513
aS'over'
p514
aS'alleged'
p515
aS'crimes'
p516
aS'httpt\xe2\x80\xa6'
p517
a(lp518
S'#hiroshima'
p519
aS'#nagasaki'
p520
aS'#syria'
p521
atp522
a((lp523
S'yes'
p524
aS'did'
p525
aS'kerry'
p526
aS'just'
p527
aS'get'
p528
aS'outfoxed'
p529
aS'assad'
p530
aS'apparently'
p531
aS'gets'
p532
aS'45'
p533
aS'days'
p534
aS'to'
p535
aS'hide'
p536
aS'his'
p537
aS'cw'
p538
aS'doesnt'
p539
aS'face'
p540
aS'threat'
p541
aS'of'
p542
aS'intl'
p543
aS'force'
p544
a(lp545
S'#syria\xe2\x80\x9d'
p546
atp547
a((lp548
S'amazing'
p549
aS'deal'
p550
aS'reached'
p551
aS'on'
p552
aS'syria\xe2\x80\x99s'
p553
aS'weapons'
p554
aS'\xe2\x80\x93'
p555
aS'republicans'
p556
aS'however'
p557
aS'not'
p558
aS'amused'
p559
aS'httptcomkxl0qu8ww'
p560
a(lp561
S'#syria'
p562
aS'#p2'
p563
aS'#tcot'
p564
atp565
a((lp566
S'i'
aS'told'
p567
aS'a'
aS'rebel'
p568
aS'sniper'
p569
aS'in'
p570
aS'drop'
p571
aS'ur'
p572
aS'rifle'
p573
aS'for'
p574
aS'a'
aS'day'
p575
aS'amp'
p576
aS'document'
p577
aS'life'
p578
aS'through'
p579
aS'lens'
p580
aS'of'
p581
aS'a'
aS'camera'
p582
aS'here'
p583
aS'his'
p584
aS'pics'
p585
aS'http\xe2\x80\xa6'
p586
a(lp587
S'#syria'
p588
atp589
a((lp590
S'us'
p591
aS'ready'
p592
aS'for'
p593
aS'military'
p594
aS'strike'
p595
aS'if'
p596
aS'talks'
p597
aS'fail'
p598
aS'obam'
p599
aS'httptcoh16vkvygin'
p600
a(lp601
S'#syria'
p602
aS'#un'
p603
aS'#egypt'
p604
aS'#bbc'
p605
aS'#world'
p606
aS'#abc'
p607
aS'#iraq'
p608
aS'#cnn'
p609
aS'#reuters'
p610
aS'#humanrights'
p611
atp612
a((lp613
S'as'
p614
aS'amp'
p615
aS'reach'
p616
aS'deal'
p617
aS'on'
p618
aS'syrias'
p619
aS'cw'
p620
aS'evidence'
p621
aS'emerges'
p622
aS'of'
p623
aS'chlorine'
p624
aS'gas'
p625
aS'attack'
p626
aS'3'
aS'days'
p627
aS'ago'
p628
aS'httpt\xe2\x80\xa6'
p629
a(lp630
S'#syria'
p631
aS'#us'
p632
aS'#russia'
p633
aS'#assad'
p634
atp635
a((lp636
S'we'
p637
aS'aren\xe2\x80\x99t'
p638
aS'forgetting'
p639
aS'911'
p640
aS'httptco\xe2\x80\xa6'
p641
a(lp642
S'#handsoffsyria'
p643
aS'#benghazi'
p644
aS'#syria'
p645
aS'#justiceforbenghazi4'
p646
aS'#alqueda'
p647
aS'#herosof'
p648
atp649
a.